; Function Attrs: mustprogress uwtable
define void @_ZN32pxrInternal_v0_24__pxrReserved__31UsdImagingPointInstancerAdapter17ProcessPrimResyncERKNS_7SdfPathEPNS_20UsdImagingIndexProxyE(ptr noundef nonnull align 8 dereferenceable(88) %0, ptr noundef nonnull align 4 dereferenceable(8) %1, ptr noundef %2) unnamed_addr #0 align 2 personality ptr @__gxx_personality_v0 {
  %4 = alloca %"class.std::vector.15", align 8
  call void @llvm.memset.p0.i64(ptr noundef nonnull align 8 dereferenceable(24) %4, i8 0, i64 24, i1 false)
  invoke void @_ZN32pxrInternal_v0_24__pxrReserved__31UsdImagingPointInstancerAdapter19_ProcessPrimRemovalERKNS_7SdfPathEPNS_20UsdImagingIndexProxyEPSt6vectorIS1_SaIS1_EE(ptr noundef nonnull align 8 dereferenceable(88) %0, ptr noundef nonnull align 4 dereferenceable(8) %1, ptr noundef %2, ptr noundef nonnull %4)
          to label %5 unwind label %.loopexit.split-lp

5:                                                ; preds = %3
  %6 = load ptr, ptr %4, align 8
  %7 = getelementptr inbounds nuw i8, ptr %4, i64 8
  %8 = load ptr, ptr %7, align 8
  %.not11 = icmp eq ptr %6, %8
  br i1 %.not11, label %_ZSt8_DestroyIPN32pxrInternal_v0_24__pxrReserved__7SdfPathES1_EvT_S3_RSaIT0_E.exit.i, label %.lr.ph

.lr.ph:                                           ; preds = %5, %9
  %.sroa.08.012 = phi ptr [ %10, %9 ], [ %6, %5 ]
  invoke void @_ZN32pxrInternal_v0_24__pxrReserved__20UsdImagingIndexProxy10RepopulateERKNS_7SdfPathE(ptr noundef nonnull align 8 dereferenceable(184) %2, ptr noundef nonnull align 4 dereferenceable(8) %.sroa.08.012)
          to label %9 unwind label %.loopexit

9:                                                ; preds = %.lr.ph
  %10 = getelementptr inbounds i8, ptr %.sroa.08.012, i64 8
  %.not = icmp eq ptr %10, %8
  br i1 %.not, label %._crit_edge, label %.lr.ph

.loopexit:                                        ; preds = %.lr.ph
  %lpad.loopexit = landingpad { ptr, i32 }
          cleanup
  br label %11

.loopexit.split-lp:                               ; preds = %3
  %lpad.loopexit.split-lp = landingpad { ptr, i32 }
          cleanup
  br label %11

11:                                               ; preds = %.loopexit.split-lp, %.loopexit
  %lpad.phi = phi { ptr, i32 } [ %lpad.loopexit, %.loopexit ], [ %lpad.loopexit.split-lp, %.loopexit.split-lp ]
  call void @_ZNSt6vectorIN32pxrInternal_v0_24__pxrReserved__7SdfPathESaIS1_EED2Ev(ptr noundef nonnull align 8 dereferenceable(24) %4) #26
  resume { ptr, i32 } %lpad.phi

._crit_edge:                                      ; preds = %9
  %.pre = load ptr, ptr %4, align 8
  %.pre13 = load ptr, ptr %7, align 8
  %.not4.i.i.i.i = icmp eq ptr %.pre, %.pre13
  br i1 %.not4.i.i.i.i, label %_ZSt8_DestroyIPN32pxrInternal_v0_24__pxrReserved__7SdfPathES1_EvT_S3_RSaIT0_E.exit.i, label %.lr.ph.i.i.i.i

.lr.ph.i.i.i.i:                                   ; preds = %._crit_edge, %_ZSt8_DestroyIN32pxrInternal_v0_24__pxrReserved__7SdfPathEEvPT_.exit.i.i.i.i
  %.05.i.i.i.i = phi ptr [ %30, %_ZSt8_DestroyIN32pxrInternal_v0_24__pxrReserved__7SdfPathEEvPT_.exit.i.i.i.i ], [ %.pre, %._crit_edge ]
  %12 = load i32, ptr %.05.i.i.i.i, align 4
  %.not.i.i.i.i.i.i.i = icmp eq i32 %12, 0
  br i1 %.not.i.i.i.i.i.i.i, label %_ZSt8_DestroyIN32pxrInternal_v0_24__pxrReserved__7SdfPathEEvPT_.exit.i.i.i.i, label %13

13:                                               ; preds = %.lr.ph.i.i.i.i
  %14 = and i32 %12, 255
  %15 = lshr i32 %12, 8
  %16 = zext nneg i32 %14 to i64
  %17 = getelementptr inbounds [257 x ptr], ptr @_ZN32pxrInternal_v0_24__pxrReserved__8Sdf_PoolINS_15Sdf_PathPrimTagELj24ELj8ELj16384EE13_regionStartsE, i64 0, i64 %16
  %18 = load ptr, ptr %17, align 8
  %19 = mul nuw nsw i32 %15, 24
  %20 = zext nneg i32 %19 to i64
  %21 = getelementptr inbounds i8, ptr %18, i64 %20
  %22 = getelementptr inbounds nuw i8, ptr %21, i64 8
  %23 = atomicrmw sub ptr %22, i32 1 seq_cst, align 4
  %24 = and i32 %23, 2147483647
  %25 = icmp eq i32 %24, 1
  br i1 %25, label %26, label %_ZSt8_DestroyIN32pxrInternal_v0_24__pxrReserved__7SdfPathEEvPT_.exit.i.i.i.i

26:                                               ; preds = %13
  invoke void @_ZNK32pxrInternal_v0_24__pxrReserved__12Sdf_PathNode8_DestroyEv(ptr noundef nonnull align 8 dereferenceable(16) %21)
          to label %_ZSt8_DestroyIN32pxrInternal_v0_24__pxrReserved__7SdfPathEEvPT_.exit.i.i.i.i unwind label %27

27:                                               ; preds = %26
  %28 = landingpad { ptr, i32 }
          catch ptr null
  %29 = extractvalue { ptr, i32 } %28, 0
  call void @__clang_call_terminate(ptr %29) #28
  unreachable

_ZSt8_DestroyIN32pxrInternal_v0_24__pxrReserved__7SdfPathEEvPT_.exit.i.i.i.i: ; preds = %26, %13, %.lr.ph.i.i.i.i
  %30 = getelementptr inbounds i8, ptr %.05.i.i.i.i, i64 8
  %.not.i.i.i.i = icmp eq ptr %30, %.pre13
  br i1 %.not.i.i.i.i, label %_ZSt8_DestroyIPN32pxrInternal_v0_24__pxrReserved__7SdfPathES1_EvT_S3_RSaIT0_E.exitthread-pre-split.i, label %.lr.ph.i.i.i.i, !llvm.loop !10

_ZSt8_DestroyIPN32pxrInternal_v0_24__pxrReserved__7SdfPathES1_EvT_S3_RSaIT0_E.exitthread-pre-split.i: ; preds = %_ZSt8_DestroyIN32pxrInternal_v0_24__pxrReserved__7SdfPathEEvPT_.exit.i.i.i.i
  %.pr.i = load ptr, ptr %4, align 8
  br label %_ZSt8_DestroyIPN32pxrInternal_v0_24__pxrReserved__7SdfPathES1_EvT_S3_RSaIT0_E.exit.i

_ZSt8_DestroyIPN32pxrInternal_v0_24__pxrReserved__7SdfPathES1_EvT_S3_RSaIT0_E.exit.i: ; preds = %5, %_ZSt8_DestroyIPN32pxrInternal_v0_24__pxrReserved__7SdfPathES1_EvT_S3_RSaIT0_E.exitthread-pre-split.i, %._crit_edge
  %31 = phi ptr [ %.pr.i, %_ZSt8_DestroyIPN32pxrInternal_v0_24__pxrReserved__7SdfPathES1_EvT_S3_RSaIT0_E.exitthread-pre-split.i ], [ %.pre, %._crit_edge ], [ %6, %5 ]
  %.not.i.i.i = icmp eq ptr %31, null
  br i1 %.not.i.i.i, label %_ZNSt6vectorIN32pxrInternal_v0_24__pxrReserved__7SdfPathESaIS1_EED2Ev.exit, label %32

32:                                               ; preds = %_ZSt8_DestroyIPN32pxrInternal_v0_24__pxrReserved__7SdfPathES1_EvT_S3_RSaIT0_E.exit.i
  %33 = getelementptr inbounds nuw i8, ptr %4, i64 16
  %34 = load ptr, ptr %33, align 8
  %35 = ptrtoint ptr %34 to i64
  %36 = ptrtoint ptr %31 to i64
  %37 = sub i64 %35, %36
  call void @_ZdlPvm(ptr noundef nonnull %31, i64 noundef %37) #27
  br label %_ZNSt6vectorIN32pxrInternal_v0_24__pxrReserved__7SdfPathESaIS1_EED2Ev.exit

_ZNSt6vectorIN32pxrInternal_v0_24__pxrReserved__7SdfPathESaIS1_EED2Ev.exit: ; preds = %_ZSt8_DestroyIPN32pxrInternal_v0_24__pxrReserved__7SdfPathES1_EvT_S3_RSaIT0_E.exit.i, %32
  ret void
}